(dp1
S'noise'
p2
F0.050000000000000003
sS'screen_width'
p3
I1366
sS'observer'
p4
Vsujet 1
p5
sS'timeStr'
p6
S'debug'
p7
sS'pos_flash'
p8
F0.5
sS'datapath'
p9
Vdata
p10
sS'std_flash'
p11
F0.050000000000000003
sS'step'
p12
F0.02
sS'experiment'
p13
Vfle
p14
sS'radius'
p15
F0.0080000000000000002
sS'duration'
p16
F1
sS'length'
p17
F0.5
sS'nTrials'
p18
I5
sS'screen_height'
p19
I768
s.